
custom:     file format elf32-bigmips


Disassembly of section .text.entry:

10000000 <_start>:
10000000:	3c1c1001 	lui	gp,0x1001
10000004:	279c9300 	addiu	gp,gp,-27904
10000008:	3c051000 	lui	a1,0x1000
1000000c:	24a51310 	addiu	a1,a1,4880
10000010:	3c041000 	lui	a0,0x1000
10000014:	24841330 	addiu	a0,a0,4912
10000018:	3c1d11ff 	lui	sp,0x11ff
1000001c:	37bdff00 	ori	sp,sp,0xff00
10000020:	aca00000 	sw	zero,0(a1)
10000024:	00a4182a 	slt	v1,a1,a0
10000028:	1460fffd 	bnez	v1,10000020 <_start+0x20>
1000002c:	24a50004 	addiu	a1,a1,4
10000030:	0c00001c 	jal	10000070 <_init>
10000034:	00000000 	nop
10000038:	27a50020 	addiu	a1,sp,32
1000003c:	27a60028 	addiu	a2,sp,40
10000040:	aca00000 	sw	zero,0(a1)
10000044:	acc00000 	sw	zero,0(a2)
10000048:	0c00002a 	jal	100000a8 <main>
1000004c:	00002021 	move	a0,zero
10000050:	08000014 	j	10000050 <_start+0x50>

Disassembly of section .init:

10000070 <_init>:
10000070:	27bdffe0 	addiu	sp,sp,-32
10000074:	afbf0014 	sw	ra,20(sp)
10000078:	04110001 	bal	10000080 <_init+0x10>
1000007c:	00000000 	nop
10000080:	0c000081 	jal	10000204 <frame_dummy>
10000084:	00000000 	nop
10000088:	04110001 	bal	10000090 <_init+0x20>
1000008c:	00000000 	nop
10000090:	0c00009b 	jal	1000026c <__do_global_ctors_aux>
10000094:	00000000 	nop

10000098 <init>:
10000098:	8fbf0014 	lw	ra,20(sp)
1000009c:	27bd0020 	addiu	sp,sp,32
100000a0:	03e00008 	jr	ra
100000a4:	00000000 	nop

Disassembly of section .text:

100000a8 <main>:
100000a8:	03e00008 	jr	ra
100000ac:	00001021 	move	v0,zero

100000b0 <deregister_tm_clones>:
100000b0:	3c041000 	lui	a0,0x1000
100000b4:	3c021000 	lui	v0,0x1000
100000b8:	2484130c 	addiu	a0,a0,4876
100000bc:	2442130f 	addiu	v0,v0,4879
100000c0:	00441023 	subu	v0,v0,a0
100000c4:	2c420007 	sltiu	v0,v0,7
100000c8:	14400006 	bnez	v0,100000e4 <deregister_tm_clones+0x34>
100000cc:	3c190000 	lui	t9,0x0
100000d0:	27390000 	addiu	t9,t9,0
100000d4:	13200003 	beqz	t9,100000e4 <deregister_tm_clones+0x34>
100000d8:	00000000 	nop
100000dc:	03200008 	jr	t9
100000e0:	00000000 	nop
100000e4:	03e00008 	jr	ra
100000e8:	00000000 	nop

100000ec <register_tm_clones>:
100000ec:	3c041000 	lui	a0,0x1000
100000f0:	3c021000 	lui	v0,0x1000
100000f4:	2484130c 	addiu	a0,a0,4876
100000f8:	2442130c 	addiu	v0,v0,4876
100000fc:	00441023 	subu	v0,v0,a0
10000100:	00021083 	sra	v0,v0,0x2
10000104:	00022fc2 	srl	a1,v0,0x1f
10000108:	00a22821 	addu	a1,a1,v0
1000010c:	00052843 	sra	a1,a1,0x1
10000110:	10a00006 	beqz	a1,1000012c <register_tm_clones+0x40>
10000114:	3c190000 	lui	t9,0x0
10000118:	27390000 	addiu	t9,t9,0
1000011c:	13200003 	beqz	t9,1000012c <register_tm_clones+0x40>
10000120:	00000000 	nop
10000124:	03200008 	jr	t9
10000128:	00000000 	nop
1000012c:	03e00008 	jr	ra
10000130:	00000000 	nop

10000134 <__do_global_dtors_aux>:
10000134:	27bdffd8 	addiu	sp,sp,-40
10000138:	afb30020 	sw	s3,32(sp)
1000013c:	3c131000 	lui	s3,0x1000
10000140:	92621310 	lbu	v0,4880(s3)
10000144:	afbf0024 	sw	ra,36(sp)
10000148:	afb2001c 	sw	s2,28(sp)
1000014c:	afb10018 	sw	s1,24(sp)
10000150:	14400025 	bnez	v0,100001e8 <__do_global_dtors_aux+0xb4>
10000154:	afb00014 	sw	s0,20(sp)
10000158:	3c111000 	lui	s1,0x1000
1000015c:	3c021000 	lui	v0,0x1000
10000160:	24421304 	addiu	v0,v0,4868
10000164:	26311300 	addiu	s1,s1,4864
10000168:	00518823 	subu	s1,v0,s1
1000016c:	3c101000 	lui	s0,0x1000
10000170:	8e021314 	lw	v0,4884(s0)
10000174:	00118883 	sra	s1,s1,0x2
10000178:	2631ffff 	addiu	s1,s1,-1
1000017c:	3c041000 	lui	a0,0x1000
10000180:	0051182b 	sltu	v1,v0,s1
10000184:	24921300 	addiu	s2,a0,4864
10000188:	1060000c 	beqz	v1,100001bc <__do_global_dtors_aux+0x88>
1000018c:	24420001 	addiu	v0,v0,1
10000190:	00021880 	sll	v1,v0,0x2
10000194:	02431821 	addu	v1,s2,v1
10000198:	8c630000 	lw	v1,0(v1)
1000019c:	00000000 	nop
100001a0:	0060f809 	jalr	v1
100001a4:	ae021314 	sw	v0,4884(s0)
100001a8:	8e021314 	lw	v0,4884(s0)
100001ac:	00000000 	nop
100001b0:	0051182b 	sltu	v1,v0,s1
100001b4:	1460fff6 	bnez	v1,10000190 <__do_global_dtors_aux+0x5c>
100001b8:	24420001 	addiu	v0,v0,1
100001bc:	0c00002c 	jal	100000b0 <deregister_tm_clones>
100001c0:	00000000 	nop
100001c4:	3c020000 	lui	v0,0x0
100001c8:	24420000 	addiu	v0,v0,0
100001cc:	10400005 	beqz	v0,100001e4 <__do_global_dtors_aux+0xb0>
100001d0:	24020001 	li	v0,1
100001d4:	3c041000 	lui	a0,0x1000
100001d8:	0c000000 	jal	10000000 <_start>
100001dc:	248402f4 	addiu	a0,a0,756
100001e0:	24020001 	li	v0,1
100001e4:	a2621310 	sb	v0,4880(s3)
100001e8:	8fbf0024 	lw	ra,36(sp)
100001ec:	8fb30020 	lw	s3,32(sp)
100001f0:	8fb2001c 	lw	s2,28(sp)
100001f4:	8fb10018 	lw	s1,24(sp)
100001f8:	8fb00014 	lw	s0,20(sp)
100001fc:	03e00008 	jr	ra
10000200:	27bd0028 	addiu	sp,sp,40

10000204 <frame_dummy>:
10000204:	3c020000 	lui	v0,0x0
10000208:	27bdffe8 	addiu	sp,sp,-24
1000020c:	24420000 	addiu	v0,v0,0
10000210:	10400006 	beqz	v0,1000022c <frame_dummy+0x28>
10000214:	afbf0014 	sw	ra,20(sp)
10000218:	3c051000 	lui	a1,0x1000
1000021c:	3c041000 	lui	a0,0x1000
10000220:	24a51318 	addiu	a1,a1,4888
10000224:	0c000000 	jal	10000000 <_start>
10000228:	248402f4 	addiu	a0,a0,756
1000022c:	3c021000 	lui	v0,0x1000
10000230:	24441308 	addiu	a0,v0,4872
10000234:	8c820000 	lw	v0,0(a0)
10000238:	00000000 	nop
1000023c:	14400004 	bnez	v0,10000250 <frame_dummy+0x4c>
10000240:	3c020000 	lui	v0,0x0
10000244:	8fbf0014 	lw	ra,20(sp)
10000248:	0800003b 	j	100000ec <register_tm_clones>
1000024c:	27bd0018 	addiu	sp,sp,24
10000250:	24420000 	addiu	v0,v0,0
10000254:	1040fffb 	beqz	v0,10000244 <frame_dummy+0x40>
10000258:	00000000 	nop
1000025c:	0040f809 	jalr	v0
10000260:	00000000 	nop
10000264:	1000fff7 	b	10000244 <frame_dummy+0x40>
10000268:	00000000 	nop

1000026c <__do_global_ctors_aux>:
1000026c:	3c021000 	lui	v0,0x1000
10000270:	8c4212f8 	lw	v0,4856(v0)
10000274:	2403ffff 	li	v1,-1
10000278:	10430012 	beq	v0,v1,100002c4 <__do_global_ctors_aux+0x58>
1000027c:	00000000 	nop
10000280:	27bdffe0 	addiu	sp,sp,-32
10000284:	afb00014 	sw	s0,20(sp)
10000288:	3c101000 	lui	s0,0x1000
1000028c:	afb10018 	sw	s1,24(sp)
10000290:	afbf001c 	sw	ra,28(sp)
10000294:	261012f8 	addiu	s0,s0,4856
10000298:	2411ffff 	li	s1,-1
1000029c:	0040f809 	jalr	v0
100002a0:	2610fffc 	addiu	s0,s0,-4
100002a4:	8e020000 	lw	v0,0(s0)
100002a8:	00000000 	nop
100002ac:	1451fffb 	bne	v0,s1,1000029c <__do_global_ctors_aux+0x30>
100002b0:	00000000 	nop
100002b4:	8fbf001c 	lw	ra,28(sp)
100002b8:	8fb10018 	lw	s1,24(sp)
100002bc:	8fb00014 	lw	s0,20(sp)
100002c0:	27bd0020 	addiu	sp,sp,32
100002c4:	03e00008 	jr	ra
100002c8:	00000000 	nop

Disassembly of section .fini:

100002cc <_fini>:
100002cc:	27bdffe0 	addiu	sp,sp,-32
100002d0:	afbf0014 	sw	ra,20(sp)
100002d4:	04110001 	bal	100002dc <_fini+0x10>
100002d8:	00000000 	nop
100002dc:	0c00004d 	jal	10000134 <__do_global_dtors_aux>
100002e0:	00000000 	nop

100002e4 <fini>:
100002e4:	8fbf0014 	lw	ra,20(sp)
100002e8:	27bd0020 	addiu	sp,sp,32
100002ec:	03e00008 	jr	ra
100002f0:	00000000 	nop
